target datalayout = "e-m:e-p270:32:32-p271:32:32-p272:64:64-i64:64-i128:128-f80:128-n8:16:32:64-S128"
target triple = "x86_64-pc-linux-gnu"

@.str.3 = private unnamed_addr constant [2 x i8] c"\0A\00", align 1
@.str.4 = private unnamed_addr constant [34 x i8] c"    insbuf [options] [selection]\0A\00", align 1
@.str.5 = private unnamed_addr constant [67 x i8] c"Insert buffer cells into the design for directly connected wires.\0A\00", align 1
@.str.6 = private unnamed_addr constant [50 x i8] c"    -buf <celltype> <in-portname> <out-portname>\0A\00", align 1
@.str.7 = private unnamed_addr constant [74 x i8] c"        Use the given cell type instead of $_BUF_. (Notice that the next\0A\00", align 1
@.str.8 = private unnamed_addr constant [64 x i8] c"        call to \22clean\22 will remove all $_BUF_ in the design.)\0A\00", align 1
@.str.9 = private unnamed_addr constant [12 x i8] c"    -chain\0A\00", align 1
@.str.10 = private unnamed_addr constant [28 x i8] c"        Chain buffer cells\0A\00", align 1

; Function Attrs: mustprogress uwtable
define internal void @_ZN12_GLOBAL__N_110InsbufPass4helpEv(ptr noundef nonnull align 8 dereferenceable(104) %0) unnamed_addr #4 align 2 {
  %2 = alloca ptr, align 8
  store ptr %0, ptr %2, align 8
  call void (ptr, ...) @_ZN5Yosys3logEPKcz(ptr noundef @.str.3)
  call void (ptr, ...) @_ZN5Yosys3logEPKcz(ptr noundef @.str.4)
  call void (ptr, ...) @_ZN5Yosys3logEPKcz(ptr noundef @.str.3)
  call void (ptr, ...) @_ZN5Yosys3logEPKcz(ptr noundef @.str.5)
  call void (ptr, ...) @_ZN5Yosys3logEPKcz(ptr noundef @.str.3)
  call void (ptr, ...) @_ZN5Yosys3logEPKcz(ptr noundef @.str.6)
  call void (ptr, ...) @_ZN5Yosys3logEPKcz(ptr noundef @.str.7)
  call void (ptr, ...) @_ZN5Yosys3logEPKcz(ptr noundef @.str.8)
  call void (ptr, ...) @_ZN5Yosys3logEPKcz(ptr noundef @.str.3)
  call void (ptr, ...) @_ZN5Yosys3logEPKcz(ptr noundef @.str.9)
  call void (ptr, ...) @_ZN5Yosys3logEPKcz(ptr noundef @.str.10)
  call void (ptr, ...) @_ZN5Yosys3logEPKcz(ptr noundef @.str.3)
  ret void
}